target datalayout = "e-m:e-p270:32:32-p271:32:32-p272:64:64-i64:64-i128:128-f80:128-n8:16:32:64-S128"
target triple = "x86_64-pc-linux-gnu"

%struct.timespec = type { i64, i64 }
%struct.conmgr_callbacks_t = type { ptr, ptr }
%union.pthread_mutex_t = type { %struct.__pthread_mutex_s }
%struct.__pthread_mutex_s = type { i32, i32, i32, i32, i32, i16, i16, %struct.__pthread_internal_list }
%struct.__pthread_internal_list = type { ptr, ptr }
%struct.event_signal_t = type { ptr, %union.pthread_cond_t, i32, i32 }
%union.pthread_cond_t = type { %struct.__pthread_cond_s }
%struct.__pthread_cond_s = type { %union.__atomic_wide_counter, %union.__atomic_wide_counter, [2 x i32], [2 x i32], i32, i32, [2 x i32] }
%union.__atomic_wide_counter = type { i64 }
%struct.slurm_conf_t = type { i64, ptr, i16, ptr, ptr, ptr, ptr, ptr, i16, ptr, ptr, ptr, ptr, ptr, ptr, ptr, i16, ptr, ptr, ptr, ptr, i16, ptr, ptr, ptr, i64, ptr, ptr, ptr, ptr, i16, ptr, ptr, i16, i32, ptr, i32, ptr, i32, i32, ptr, ptr, i64, i64, ptr, i16, i16, ptr, i32, i32, ptr, i32, ptr, i32, i16, i16, i16, ptr, i16, i16, ptr, ptr, i32, i16, i16, ptr, i32, i16, ptr, ptr, ptr, ptr, i16, ptr, ptr, ptr, ptr, i32, ptr, ptr, ptr, ptr, i16, i16, ptr, i32, i32, i32, i16, i16, ptr, ptr, i16, ptr, ptr, i32, i32, i32, i32, i32, i64, i32, i32, i16, ptr, ptr, i32, ptr, ptr, ptr, i16, i32, ptr, ptr, i16, ptr, ptr, i32, i16, ptr, ptr, ptr, ptr, i32, i32, i16, i16, i32, ptr, i16, ptr, i32, i32, i32, i32, i32, i32, ptr, i16, ptr, ptr, i32, i16, ptr, i32, i16, i16, ptr, ptr, ptr, i16, ptr, ptr, ptr, ptr, i16, i16, ptr, i16, ptr, i16, ptr, i16, ptr, i16, ptr, ptr, ptr, ptr, i16, ptr, ptr, ptr, i32, ptr, i32, ptr, ptr, i16, ptr, ptr, i32, i16, ptr, ptr, i16, i16, ptr, i16, ptr, ptr, ptr, i32, ptr, i16, i16, ptr, ptr, ptr, ptr, ptr, ptr, ptr, ptr, i16, i32, i16, ptr, ptr, ptr, ptr, i32, ptr, ptr, ptr, i16, ptr, ptr, ptr, i16, ptr, i16, ptr, i16, i16, ptr }
%struct.conmgr_t = type { i32, i32, %struct.timespec, %struct.timespec, %struct.timespec, i32, ptr, ptr, ptr, i8, i8, i64, %struct.timespec, i8, i8, i8, i8, i8, i32, ptr, ptr, %struct.conmgr_callbacks_t, %union.pthread_mutex_t, %struct.anon, %struct.anon.1, %struct.event_signal_t, %struct.event_signal_t, %struct.event_signal_t, %struct.event_signal_t }
%struct.anon = type { i32, ptr, i32, i32, i8, i32 }
%struct.anon.1 = type { i8, i8, %struct.event_signal_t, %struct.event_signal_t }

@.str.6 = private unnamed_addr constant [29 x i8] c"%s: pthread_mutex_lock(): %m\00", align 1
@.str.9 = private unnamed_addr constant [31 x i8] c"%s: pthread_mutex_unlock(): %m\00", align 1
@slurm_conf = external global %struct.slurm_conf_t, align 8
@.str.18 = private unnamed_addr constant [31 x i8] c"CONMGR: %s: shutdown requested\00", align 1
@__func__.conmgr_request_shutdown = private unnamed_addr constant [24 x i8] c"conmgr_request_shutdown\00", align 1

; Function Attrs: nounwind uwtable
define dso_local void @conmgr_request_shutdown() #0 {
  %1 = alloca i32, align 4
  %2 = alloca i32, align 4
  br label %3

3:                                                ; preds = %0
  %4 = load i64, ptr getelementptr inbounds nuw (%struct.slurm_conf_t, ptr @slurm_conf, i32 0, i32 42), align 8
  %5 = and i64 %4, 512
  %6 = icmp ne i64 %5, 0
  br i1 %6, label %7, label %14

7:                                                ; preds = %3
  br label %8

8:                                                ; preds = %7
  %9 = call i32 @get_log_level()
  %10 = icmp sge i32 %9, 4
  br i1 %10, label %11, label %12

11:                                               ; preds = %8
  call void (i32, ptr, ...) @log_var(i32 noundef 4, ptr noundef @.str.18, ptr noundef @__func__.conmgr_request_shutdown)
  br label %12

12:                                               ; preds = %11, %8
  br label %13

13:                                               ; preds = %12
  br label %14

14:                                               ; preds = %13, %3
  br label %15

15:                                               ; preds = %14
  br label %16

16:                                               ; preds = %15
  call void @llvm.lifetime.start.p0(i64 4, ptr %1) #8
  %17 = call i32 @pthread_mutex_lock(ptr noundef getelementptr inbounds nuw (%struct.conmgr_t, ptr @mgr, i32 0, i32 22)) #8
  store i32 %17, ptr %1, align 4
  %18 = load i32, ptr %1, align 4
  %19 = icmp ne i32 %18, 0
  br i1 %19, label %20, label %23

20:                                               ; preds = %16
  %21 = load i32, ptr %1, align 4
  %22 = call ptr @__errno_location() #9
  store i32 %21, ptr %22, align 4
  call void (ptr, ...) @fatal_abort(ptr noundef @.str.6, ptr noundef @__func__.conmgr_request_shutdown) #10
  unreachable

23:                                               ; preds = %16
  call void @llvm.lifetime.end.p0(i64 4, ptr %1) #8
  br label %24

24:                                               ; preds = %23
  %25 = load i8, ptr getelementptr inbounds nuw (%struct.conmgr_t, ptr @mgr, i32 0, i32 9), align 8, !range !8, !noundef !9
  %26 = trunc i8 %25 to i1
  br i1 %26, label %27, label %28

27:                                               ; preds = %24
  store i8 1, ptr getelementptr inbounds nuw (%struct.conmgr_t, ptr @mgr, i32 0, i32 14), align 1
  call void @event_signal_now(i1 noundef zeroext false, ptr noundef getelementptr inbounds nuw (%struct.conmgr_t, ptr @mgr, i32 0, i32 25), ptr noundef @__func__.conmgr_request_shutdown)
  br label %28

28:                                               ; preds = %27, %24
  br label %29

29:                                               ; preds = %28
  call void @llvm.lifetime.start.p0(i64 4, ptr %2) #8
  %30 = call i32 @pthread_mutex_unlock(ptr noundef getelementptr inbounds nuw (%struct.conmgr_t, ptr @mgr, i32 0, i32 22)) #8
  store i32 %30, ptr %2, align 4
  %31 = load i32, ptr %2, align 4
  %32 = icmp ne i32 %31, 0
  br i1 %32, label %33, label %36

33:                                               ; preds = %29
  %34 = load i32, ptr %2, align 4
  %35 = call ptr @__errno_location() #9
  store i32 %34, ptr %35, align 4
  call void (ptr, ...) @fatal_abort(ptr noundef @.str.9, ptr noundef @__func__.conmgr_request_shutdown) #10
  unreachable

36:                                               ; preds = %29
  call void @llvm.lifetime.end.p0(i64 4, ptr %2) #8
  br label %37

37:                                               ; preds = %36
  ret void
}