; Function Attrs: nounwind uwtable
define dso_local void @conmgr_request_shutdown() #0 {
  %1 = load i64, ptr getelementptr inbounds nuw (i8, ptr @slurm_conf, i64 320), align 8
  %2 = and i64 %1, 512
  %.not = icmp eq i64 %2, 0
  br i1 %.not, label %7, label %3

3:                                                ; preds = %0
  %4 = tail call i32 @get_log_level() #11
  %5 = icmp sgt i32 %4, 3
  br i1 %5, label %6, label %7

6:                                                ; preds = %3
  tail call void (i32, ptr, ...) @log_var(i32 noundef 4, ptr noundef nonnull @.str.18, ptr noundef nonnull @__func__.conmgr_request_shutdown) #11
  br label %7

7:                                                ; preds = %6, %3, %0
  %8 = tail call i32 @pthread_mutex_lock(ptr noundef nonnull getelementptr inbounds nuw (i8, ptr @mgr, i64 168)) #11
  %.not5 = icmp eq i32 %8, 0
  br i1 %.not5, label %11, label %9

9:                                                ; preds = %7
  %10 = tail call ptr @__errno_location() #12
  store i32 %8, ptr %10, align 4
  tail call void (ptr, ...) @fatal_abort(ptr noundef nonnull @.str.6, ptr noundef nonnull @__func__.conmgr_request_shutdown) #13
  unreachable

11:                                               ; preds = %7
  %12 = load i8, ptr getelementptr inbounds nuw (i8, ptr @mgr, i64 88), align 8, !range !8, !noundef !9
  %13 = trunc nuw i8 %12 to i1
  br i1 %13, label %14, label %15

14:                                               ; preds = %11
  store i8 1, ptr getelementptr inbounds nuw (i8, ptr @mgr, i64 121), align 1
  tail call void @event_signal_now(i1 noundef zeroext false, ptr noundef nonnull getelementptr inbounds nuw (i8, ptr @mgr, i64 376), ptr noundef nonnull @__func__.conmgr_request_shutdown) #11
  br label %15

15:                                               ; preds = %11, %14
  %16 = tail call i32 @pthread_mutex_unlock(ptr noundef nonnull getelementptr inbounds nuw (i8, ptr @mgr, i64 168)) #11
  %.not6 = icmp eq i32 %16, 0
  br i1 %.not6, label %19, label %17

17:                                               ; preds = %15
  %18 = tail call ptr @__errno_location() #12
  store i32 %16, ptr %18, align 4
  tail call void (ptr, ...) @fatal_abort(ptr noundef nonnull @.str.9, ptr noundef nonnull @__func__.conmgr_request_shutdown) #13
  unreachable

19:                                               ; preds = %15
  ret void
}